Certificate:
    Data:
        Version: 3 (0x2)
        Serial Number: 1 (0x1)
    Signature Algorithm: sha256WithRSAEncryption
        Issuer: C=FR, ST=NORD, L=VILLENEUVE ASCQ, O=SECURITE
        Validity
            Not Before: Jan 27 09:39:01 2015 GMT
            Not After : Jan 27 09:39:01 2016 GMT
        Subject: C=FR, ST=NORD, L=VILLENEUVE ASCQ, O=SECURITE, CN=Benjamin Chevalier/emailAddress=benjamin3.chevalier@etudiant.univ-lille1.fr
        Subject Public Key Info:
            Public Key Algorithm: rsaEncryption
                Public-Key: (2048 bit)
                Modulus:
                    00:a5:ac:f5:e0:ea:58:75:cf:6c:bf:24:ed:8b:0d:
                    85:80:52:42:d5:ad:8c:7a:01:9a:08:15:93:24:31:
                    2e:fb:31:84:11:ed:a3:5a:0b:24:70:7b:2a:8e:ac:
                    f1:b9:80:c3:9d:a3:b4:ca:35:95:bd:38:13:6e:d4:
                    69:53:ae:7e:c6:7b:46:2e:4e:9d:dc:b8:ab:6c:6d:
                    a1:79:c4:97:d5:65:5b:d8:84:0f:03:0c:a3:83:75:
                    0a:9a:65:e3:74:e2:b1:46:6e:d1:b5:fb:88:cc:49:
                    eb:7b:63:10:7f:26:45:bf:bc:16:e4:4f:90:54:5b:
                    b4:2a:03:b3:2d:c5:c5:66:c9:7e:7b:37:2e:a0:94:
                    2a:42:18:16:cd:e5:1a:59:46:1e:1b:74:4b:4a:f8:
                    26:79:cc:32:d8:8d:14:a6:13:6b:dd:a0:b0:cb:6d:
                    ba:44:d9:08:cd:25:ff:17:ba:e0:e3:28:1c:d8:ba:
                    95:8c:3d:e7:76:d3:6a:e6:9e:00:41:4e:fc:fa:23:
                    74:03:a8:f0:1b:b7:c7:6d:e3:a9:8f:97:27:9e:0f:
                    24:39:4a:bc:22:90:2e:c8:7d:5e:79:6f:d1:60:96:
                    47:f6:e1:80:fd:02:40:35:79:23:e3:b8:45:91:ab:
                    f6:4a:a0:7e:84:af:ce:53:48:20:61:3d:6d:a5:9d:
                    c4:bf
                Exponent: 65537 (0x10001)
        X509v3 extensions:
            X509v3 Basic Constraints: 
                CA:FALSE
            Netscape Comment: 
                OpenSSL Generated Certificate
            X509v3 Subject Key Identifier: 
                FC:D2:F6:38:0B:1B:B0:7E:40:C4:B3:4E:BD:C5:22:6B:68:97:B6:26
            X509v3 Authority Key Identifier: 
                keyid:ED:ED:8B:42:8B:5B:64:7E:E3:5E:D7:24:D4:99:35:1A:80:9A:22:D4

    Signature Algorithm: sha256WithRSAEncryption
         05:19:f8:c8:35:c9:67:83:91:be:78:33:f7:13:e6:b4:86:d8:
         5f:76:98:37:29:eb:bd:77:d5:03:77:de:d8:2f:d8:e4:ea:43:
         8d:78:53:82:c2:ab:4c:90:86:d6:83:ac:ba:37:73:6c:bc:ff:
         78:1f:61:a9:8b:ba:98:82:2e:9e:14:ab:13:cf:30:5d:1d:ac:
         42:6e:7d:e3:d7:39:23:96:72:30:39:7b:33:6a:75:8d:43:61:
         c0:75:88:7c:69:6c:01:20:bb:45:18:08:cc:18:7a:00:ab:3b:
         6c:2c:90:ae:5d:b6:8a:67:d9:c4:39:66:f4:47:f2:39:fe:8a:
         91:b4:c8:04:12:bc:b7:72:df:6e:3b:ce:81:85:33:b8:c4:a8:
         e4:19:f9:e9:78:6e:e9:d2:c1:92:1a:db:d8:21:ef:a0:bf:e4:
         52:4d:5d:44:db:55:99:ac:d2:19:67:86:ea:86:9f:c8:96:1f:
         a1:61:22:8a:dc:05:31:22:96:a9:a8:5c:55:bf:80:54:33:5a:
         8e:b7:d5:77:d0:33:23:07:21:49:d4:10:bc:f3:1c:8f:f2:87:
         09:87:76:5c:1c:8c:46:97:fa:56:95:b3:1f:8d:c3:c2:61:d8:
         36:2f:83:42:37:97:b9:2c:17:aa:df:90:58:24:8d:9e:0e:d5:
         49:8e:0d:97:35:22:71:07:1a:4b:40:de:1e:32:53:8b:c0:55:
         f5:69:2b:f2:55:ff:cb:5b:10:27:7a:ac:68:c0:c3:75:c7:bd:
         bd:c9:4c:18:cc:2d:74:30:92:fd:b0:3c:cd:c7:58:5c:d1:c7:
         8d:96:06:42:f1:8c:e1:4e:1e:3d:40:df:44:3e:bf:94:9d:64:
         97:25:e1:ea:44:13:39:6b:5a:90:db:77:a3:6f:6e:b8:26:06:
         b5:58:61:e0:e0:c2:33:12:4c:d3:c9:0d:68:64:af:75:74:0a:
         15:92:ac:2f:b8:b4:3e:c9:fd:58:a3:cb:a3:19:49:1d:bf:c6:
         67:c5:17:0f:ce:a0:11:65:72:28:8f:40:a3:e6:ac:a0:90:1b:
         91:88:a2:f5:9e:97:e0:f4:18:36:a6:24:64:9c:76:99:4b:95:
         9a:67:e3:5e:92:6c:00:08:ab:9e:89:07:fc:f3:92:46:93:1f:
         02:8c:a4:1d:57:83:79:a3:c6:29:0a:a9:95:8f:bc:9e:f2:5d:
         05:49:7b:48:61:37:18:ca:68:62:54:16:08:01:23:48:1f:74:
         7c:b2:a8:c7:4d:9d:62:be:90:e6:04:67:99:88:e7:98:32:62:
         01:42:25:9e:30:5a:fa:4c:4b:32:91:a4:e7:25:6b:53:7b:a8:
         8d:34:fa:04:13:68:e8:72
-----BEGIN CERTIFICATE-----
MIIE4jCCAsqgAwIBAgIBATANBgkqhkiG9w0BAQsFADBJMQswCQYDVQQGEwJGUjEN
MAsGA1UECAwETk9SRDEYMBYGA1UEBwwPVklMTEVORVVWRSBBU0NRMREwDwYDVQQK
DAhTRUNVUklURTAeFw0xNTAxMjcwOTM5MDFaFw0xNjAxMjcwOTM5MDFaMIGiMQsw
CQYDVQQGEwJGUjENMAsGA1UECAwETk9SRDEYMBYGA1UEBwwPVklMTEVORVVWRSBB
U0NRMREwDwYDVQQKDAhTRUNVUklURTEbMBkGA1UEAwwSQmVuamFtaW4gQ2hldmFs
aWVyMTowOAYJKoZIhvcNAQkBFitiZW5qYW1pbjMuY2hldmFsaWVyQGV0dWRpYW50
LnVuaXYtbGlsbGUxLmZyMIIBIjANBgkqhkiG9w0BAQEFAAOCAQ8AMIIBCgKCAQEA
paz14OpYdc9svyTtiw2FgFJC1a2MegGaCBWTJDEu+zGEEe2jWgskcHsqjqzxuYDD
naO0yjWVvTgTbtRpU65+xntGLk6d3LirbG2hecSX1WVb2IQPAwyjg3UKmmXjdOKx
Rm7RtfuIzEnre2MQfyZFv7wW5E+QVFu0KgOzLcXFZsl+ezcuoJQqQhgWzeUaWUYe
G3RLSvgmecwy2I0UphNr3aCwy226RNkIzSX/F7rg4ygc2LqVjD3ndtNq5p4AQU78
+iN0A6jwG7fHbeOpj5cnng8kOUq8IpAuyH1eeW/RYJZH9uGA/QJANXkj47hFkav2
SqB+hK/OU0ggYT1tpZ3EvwIDAQABo3sweTAJBgNVHRMEAjAAMCwGCWCGSAGG+EIB
DQQfFh1PcGVuU1NMIEdlbmVyYXRlZCBDZXJ0aWZpY2F0ZTAdBgNVHQ4EFgQU/NL2
OAsbsH5AxLNOvcUia2iXtiYwHwYDVR0jBBgwFoAU7e2LQotbZH7jXtck1Jk1GoCa
ItQwDQYJKoZIhvcNAQELBQADggIBAAUZ+Mg1yWeDkb54M/cT5rSG2F92mDcp6713
1QN33tgv2OTqQ414U4LCq0yQhtaDrLo3c2y8/3gfYamLupiCLp4UqxPPMF0drEJu
fePXOSOWcjA5ezNqdY1DYcB1iHxpbAEgu0UYCMwYegCrO2wskK5dtopn2cQ5ZvRH
8jn+ipG0yAQSvLdy3247zoGFM7jEqOQZ+el4bunSwZIa29gh76C/5FJNXUTbVZms
0hlnhuqGn8iWH6FhIorcBTEilqmoXFW/gFQzWo631XfQMyMHIUnUELzzHI/yhwmH
dlwcjEaX+laVsx+Nw8Jh2DYvg0I3l7ksF6rfkFgkjZ4O1UmODZc1InEHGktA3h4y
U4vAVfVpK/JV/8tbECd6rGjAw3XHvb3JTBjMLXQwkv2wPM3HWFzRx42WBkLxjOFO
Hj1A30Q+v5SdZJcl4epEEzlrWpDbd6NvbrgmBrVYYeDgwjMSTNPJDWhkr3V0ChWS
rC+4tD7J/Vijy6MZSR2/xmfFFw/OoBFlciiPQKPmrKCQG5GIovWel+D0GDamJGSc
dplLlZpn416SbAAIq56JB/zzkkaTHwKMpB1Xg3mjxikKqZWPvJ7yXQVJe0hhNxjK
aGJUFggBI0gfdHyyqMdNnWK+kOYEZ5mI55gyYgFCJZ4wWvpMSzKRpOcla1N7qI00
+gQTaOhy
-----END CERTIFICATE-----
